; Function Attrs: nounwind uwtable
define zeroext range(i8 0, 2) i8 @l_Std_Time_Duration_isZero(ptr noundef readonly captures(none) %0) local_unnamed_addr #0 {
  %2 = getelementptr inbounds nuw i8, ptr %0, i64 8
  %3 = load ptr, ptr %2, align 8, !tbaa !4
  %4 = load ptr, ptr @l___private_Std_Time_Duration_0__Std_Time_reprDuration____x40_Std_Time_Duration___hyg_295____closed__8, align 8, !tbaa !4
  %5 = ptrtoint ptr %3 to i64
  %6 = ptrtoint ptr %4 to i64
  %7 = and i64 %6, 1
  %8 = and i64 %7, %5
  %or.cond.not.i.i = icmp eq i64 %8, 0
  br i1 %or.cond.not.i.i, label %lean_int_dec_eq.exit, label %9, !prof !15

9:                                                ; preds = %1
  %10 = icmp eq ptr %3, %4
  br i1 %10, label %12, label %21

lean_int_dec_eq.exit:                             ; preds = %1
  %11 = tail call zeroext i1 @lean_int_big_eq(ptr noundef %3, ptr noundef %4) #3
  br i1 %11, label %12, label %21

12:                                               ; preds = %9, %lean_int_dec_eq.exit
  %13 = getelementptr inbounds nuw i8, ptr %0, i64 16
  %14 = load ptr, ptr %13, align 8, !tbaa !4
  %15 = ptrtoint ptr %14 to i64
  %16 = and i64 %7, %15
  %or.cond.not.i.i9 = icmp eq i64 %16, 0
  br i1 %or.cond.not.i.i9, label %.critedge.i.i11, label %17, !prof !15

17:                                               ; preds = %12
  %18 = icmp eq ptr %14, %4
  br label %lean_int_dec_eq.exit12

.critedge.i.i11:                                  ; preds = %12
  %19 = tail call zeroext i1 @lean_int_big_eq(ptr noundef %14, ptr noundef %4) #3
  br label %lean_int_dec_eq.exit12

lean_int_dec_eq.exit12:                           ; preds = %17, %.critedge.i.i11
  %.0.i.i10 = phi i1 [ %18, %17 ], [ %19, %.critedge.i.i11 ]
  %20 = zext i1 %.0.i.i10 to i8
  br label %21

21:                                               ; preds = %9, %lean_int_dec_eq.exit, %lean_int_dec_eq.exit12
  %.0 = phi i8 [ %20, %lean_int_dec_eq.exit12 ], [ 0, %lean_int_dec_eq.exit ], [ 0, %9 ]
  ret i8 %.0
}